target datalayout = "e-m:e-p270:32:32-p271:32:32-p272:64:64-i64:64-i128:128-f80:128-n8:16:32:64-S128"
target triple = "x86_64-pc-linux-gnu"

; Function Attrs: mustprogress null_pointer_is_valid sspstrong uwtable
define void @_ZN15RtpPlayerDialog29on_actionGoToPacket_triggeredEv(ptr noundef align 8 dereferenceable_or_null(472) %0) #0 align 2 {
  %2 = alloca ptr, align 8
  %3 = alloca i32, align 4
  store ptr %0, ptr %2, align 8
  %4 = load ptr, ptr %2, align 8
  call void @llvm.lifetime.start.p0(i64 4, ptr %3) #26
  %5 = call noundef i32 @_ZN15RtpPlayerDialog16getHoveredPacketEv(ptr noundef align 8 dereferenceable_or_null(472) %4)
  store i32 %5, ptr %3, align 4
  %6 = load i32, ptr %3, align 4
  %7 = icmp sgt i32 %6, 0
  br i1 %7, label %8, label %10

8:                                                ; preds = %1
  %9 = load i32, ptr %3, align 4
  call void @_ZN15RtpPlayerDialog10goToPacketEi(ptr noundef align 8 dereferenceable_or_null(472) %4, i32 noundef %9)
  br label %10

10:                                               ; preds = %8, %1
  call void @llvm.lifetime.end.p0(i64 4, ptr %3) #26
  ret void
}