; Function Attrs: mustprogress null_pointer_is_valid sspstrong uwtable
define void @_ZN15RtpPlayerDialog29on_actionGoToPacket_triggeredEv(ptr noundef align 8 dereferenceable_or_null(472) %0) local_unnamed_addr #0 align 2 {
  %2 = tail call noundef i32 @_ZN15RtpPlayerDialog16getHoveredPacketEv(ptr noundef align 8 dereferenceable_or_null(472) %0)
  %3 = icmp sgt i32 %2, 0
  br i1 %3, label %4, label %5

4:                                                ; preds = %1
  tail call void @_ZN15RtpPlayerDialog10goToPacketEi(ptr noundef align 8 dereferenceable_or_null(472) %0, i32 noundef %2)
  br label %5

5:                                                ; preds = %4, %1
  ret void
}